; Function Attrs: nounwind uwtable
define internal noundef i32 @experimental_hooks_remove_ctl(ptr noundef %tsd, ptr nocapture readnone %mib, i64 %miblen, ptr noundef readnone %oldp, ptr noundef readnone %oldlenp, ptr noundef readonly %newp, i64 noundef %newlen) #0 {
entry:
  %cmp = icmp ne ptr %oldp, null
  %cmp1 = icmp ne ptr %oldlenp, null
  %or.cond = or i1 %cmp, %cmp1
  br i1 %or.cond, label %label_return, label %do.end

do.end:                                           ; preds = %entry
  %cmp3.not = icmp ne ptr %newp, null
  %cmp5.not = icmp eq i64 %newlen, 8
  %or.cond5 = and i1 %cmp3.not, %cmp5.not
  br i1 %or.cond5, label %do.end9, label %label_return

do.end9:                                          ; preds = %do.end
  %0 = load ptr, ptr %newp, align 8
  %cmp10 = icmp eq ptr %0, null
  br i1 %cmp10, label %label_return, label %if.end12

if.end12:                                         ; preds = %do.end9
  tail call void @hook_remove(ptr noundef %tsd, ptr noundef nonnull %0) #14
  br label %label_return

label_return:                                     ; preds = %do.end, %do.end9, %entry, %if.end12
  %ret.0 = phi i32 [ 0, %if.end12 ], [ 1, %entry ], [ 22, %do.end9 ], [ 22, %do.end ]
  ret i32 %ret.0
}